; Function Attrs: mustprogress nofree norecurse nosync nounwind willreturn memory(readwrite, inaccessiblemem: none) uwtable
define i32 @ff_vvc_end_of_subset_one_bit(ptr noundef readonly captures(none) %0) local_unnamed_addr #2 {
  %2 = getelementptr inbounds nuw i8, ptr %0, i64 4580560
  %3 = load ptr, ptr %2, align 16, !tbaa !67
  %4 = getelementptr inbounds nuw i8, ptr %3, i64 2672
  %5 = getelementptr inbounds nuw i8, ptr %3, i64 2676
  %6 = load i32, ptr %5, align 4, !tbaa !100
  %7 = add nsw i32 %6, -2
  store i32 %7, ptr %5, align 4, !tbaa !100
  %8 = load i32, ptr %4, align 8, !tbaa !70
  %9 = shl i32 %7, 17
  %10 = icmp slt i32 %8, %9
  br i1 %10, label %11, label %35

11:                                               ; preds = %1
  %12 = add nsw i32 %6, -258
  %13 = lshr i32 %12, 31
  %14 = shl i32 %7, %13
  store i32 %14, ptr %5, align 4, !tbaa !100
  %15 = shl i32 %8, %13
  store i32 %15, ptr %4, align 8, !tbaa !70
  %16 = and i32 %15, 65535
  %.not.i.i = icmp eq i32 %16, 0
  br i1 %.not.i.i, label %17, label %get_cabac_terminate.exit

17:                                               ; preds = %11
  %18 = getelementptr inbounds nuw i8, ptr %3, i64 2688
  %19 = load ptr, ptr %18, align 8, !tbaa !68
  %20 = load i8, ptr %19, align 1, !tbaa !97
  %21 = zext i8 %20 to i32
  %22 = shl nuw nsw i32 %21, 9
  %23 = getelementptr inbounds nuw i8, ptr %19, i64 1
  %24 = load i8, ptr %23, align 1, !tbaa !97
  %25 = zext i8 %24 to i32
  %26 = shl nuw nsw i32 %25, 1
  %27 = or disjoint i32 %26, %22
  %28 = add i32 %15, -65535
  %29 = add i32 %28, %27
  store i32 %29, ptr %4, align 8, !tbaa !70
  %30 = getelementptr inbounds nuw i8, ptr %3, i64 2696
  %31 = load ptr, ptr %30, align 8, !tbaa !71
  %32 = icmp ult ptr %19, %31
  br i1 %32, label %33, label %get_cabac_terminate.exit

33:                                               ; preds = %17
  %34 = getelementptr inbounds nuw i8, ptr %19, i64 2
  store ptr %34, ptr %18, align 8, !tbaa !68
  br label %get_cabac_terminate.exit

35:                                               ; preds = %1
  %36 = getelementptr inbounds nuw i8, ptr %3, i64 2688
  %37 = load ptr, ptr %36, align 8, !tbaa !68
  %38 = getelementptr inbounds nuw i8, ptr %3, i64 2680
  %39 = load ptr, ptr %38, align 8, !tbaa !226
  %40 = ptrtoint ptr %37 to i64
  %41 = ptrtoint ptr %39 to i64
  %42 = sub i64 %40, %41
  %43 = trunc i64 %42 to i32
  br label %get_cabac_terminate.exit

get_cabac_terminate.exit:                         ; preds = %11, %17, %33, %35
  %.0.i = phi i32 [ %43, %35 ], [ 0, %11 ], [ 0, %17 ], [ 0, %33 ]
  ret i32 %.0.i
}